target datalayout = "e-m:e-p270:32:32-p271:32:32-p272:64:64-i64:64-i128:128-f80:128-n8:16:32:64-S128"
target triple = "x86_64-pc-linux-gnu"

%struct.WOLFSSL = type <{ ptr, ptr, ptr, ptr, [48 x i8], [48 x i8], ptr, ptr, ptr, ptr, ptr, ptr, ptr, ptr, ptr, ptr, ptr, ptr, ptr, i32, [4 x i8], %struct.WOLFSSL_CIPHER, ptr, %struct.Ciphers, %struct.Ciphers, [8 x i8], %struct.Buffers, ptr, ptr, %struct.WOLFSSL_ALERT_HISTORY, %struct.WOLFSSL_ALERT, i32, i32, i32, i32, i32, i32, i32, i16, [2 x i8], i32, i8, %struct.RecordLayerHeader, %struct.MsgsReceived, %struct.ProtocolVersion, %struct.ProtocolVersion, %struct.CipherSpecs, [2 x i8], %struct.Keys, %struct.Options, ptr, i8, i8, i16, [10 x i16], i8, i8, i16, i16, [38 x i8], i32, i32, [4 x i8], ptr, i8, i8, [6 x i8], ptr, ptr, i16, i8, i8, i32, i8, [3 x i8], i32, %struct.OneTimeAuth, ptr }>
%struct.WOLFSSL_CIPHER = type { i8, i8, ptr }
%struct.Ciphers = type { ptr, ptr, ptr, ptr, i8, i8 }
%struct.Buffers = type { %struct.bufferStatic, %struct.bufferStatic, %struct.WOLFSSL_BUFFER_INFO, %struct.WOLFSSL_BUFFER_INFO, %struct.WOLFSSL_BUFFER_INFO, %struct.WOLFSSL_BUFFER_INFO, i32, i32, i8, i8, i8, i8, %struct.WOLFSSL_BUFFER_INFO, %struct.WOLFSSL_BUFFER_INFO, %struct.WOLFSSL_BUFFER_INFO, %struct.WOLFSSL_BUFFER_INFO, ptr, ptr, ptr, i8, i8, i32, i32, ptr, i32, [1 x ptr] }
%struct.bufferStatic = type { [5 x i8], ptr, i32, i32, i32, i8, i8 }
%struct.WOLFSSL_BUFFER_INFO = type { ptr, i32 }
%struct.WOLFSSL_ALERT_HISTORY = type { %struct.WOLFSSL_ALERT, %struct.WOLFSSL_ALERT }
%struct.WOLFSSL_ALERT = type { i32, i32 }
%struct.RecordLayerHeader = type { i8, i8, i8, [2 x i8] }
%struct.MsgsReceived = type { i32 }
%struct.ProtocolVersion = type { i8, i8 }
%struct.CipherSpecs = type { i16, i16, i16, i16, i8, i8, i8, i8, i8, i8, i8, i8 }
%struct.Keys = type { [64 x i8], [64 x i8], [32 x i8], [32 x i8], [16 x i8], [16 x i8], [8 x i8], [12 x i8], [12 x i8], i32, i32, i32, i32, i32, i32, i8, i8, i8, i8 }
%struct.Options = type { i64, i64, i8, i8, i8, i8, i8, i8, i8, i8, i8, i8, i8, i8, i8, i8, i8, i8, i8, i8, i8, i8, i8, i16, i16, i16, i16, i16, i8 }
%struct.OneTimeAuth = type { ptr, i8 }

; Function Attrs: inlinehint nounwind uwtable
define internal void @ForceZero(ptr noundef %0, i32 noundef %1) #5 {
  %3 = alloca ptr, align 8
  %4 = alloca i32, align 4
  %5 = alloca ptr, align 8
  %6 = alloca ptr, align 8
  %7 = alloca i32, align 4
  store ptr %0, ptr %3, align 8, !tbaa !59
  store i32 %1, ptr %4, align 4, !tbaa !47
  call void @llvm.lifetime.start.p0(i64 8, ptr %5) #9
  %8 = load ptr, ptr %3, align 8, !tbaa !59
  store ptr %8, ptr %5, align 8, !tbaa !89
  call void @llvm.lifetime.start.p0(i64 8, ptr %6) #9
  call void @llvm.lifetime.start.p0(i64 4, ptr %7) #9
  %9 = load ptr, ptr %5, align 8, !tbaa !89
  %10 = ptrtoint ptr %9 to i64
  %11 = and i64 %10, 7
  %12 = sub i64 8, %11
  %13 = and i64 %12, 7
  %14 = trunc i64 %13 to i32
  store i32 %14, ptr %7, align 4, !tbaa !47
  %15 = load i32, ptr %4, align 4, !tbaa !47
  %16 = load i32, ptr %7, align 4, !tbaa !47
  %17 = icmp ult i32 %15, %16
  br i1 %17, label %18, label %20

18:                                               ; preds = %2
  %19 = load i32, ptr %4, align 4, !tbaa !47
  store i32 %19, ptr %7, align 4, !tbaa !47
  br label %20

20:                                               ; preds = %18, %2
  %21 = load i32, ptr %7, align 4, !tbaa !47
  %22 = load i32, ptr %4, align 4, !tbaa !47
  %23 = sub i32 %22, %21
  store i32 %23, ptr %4, align 4, !tbaa !47
  br label %24

24:                                               ; preds = %28, %20
  %25 = load i32, ptr %7, align 4, !tbaa !47
  %26 = add i32 %25, -1
  store i32 %26, ptr %7, align 4, !tbaa !47
  %27 = icmp ne i32 %25, 0
  br i1 %27, label %28, label %31

28:                                               ; preds = %24
  %29 = load ptr, ptr %5, align 8, !tbaa !89
  %30 = getelementptr inbounds nuw i8, ptr %29, i32 1
  store ptr %30, ptr %5, align 8, !tbaa !89
  store volatile i8 0, ptr %29, align 1, !tbaa !54
  br label %24, !llvm.loop !90

31:                                               ; preds = %24
  %32 = load ptr, ptr %5, align 8, !tbaa !89
  store ptr %32, ptr %6, align 8, !tbaa !92
  br label %33

33:                                               ; preds = %40, %31
  %34 = load i32, ptr %4, align 4, !tbaa !47
  %35 = zext i32 %34 to i64
  %36 = icmp uge i64 %35, 8
  br i1 %36, label %37, label %43

37:                                               ; preds = %33
  %38 = load ptr, ptr %6, align 8, !tbaa !92
  %39 = getelementptr inbounds nuw i64, ptr %38, i32 1
  store ptr %39, ptr %6, align 8, !tbaa !92
  store volatile i64 0, ptr %38, align 8, !tbaa !94
  br label %40

40:                                               ; preds = %37
  %41 = load i32, ptr %4, align 4, !tbaa !47
  %42 = sub i32 %41, 8
  store i32 %42, ptr %4, align 4, !tbaa !47
  br label %33, !llvm.loop !95

43:                                               ; preds = %33
  %44 = load ptr, ptr %6, align 8, !tbaa !92
  store ptr %44, ptr %5, align 8, !tbaa !89
  br label %45

45:                                               ; preds = %49, %43
  %46 = load i32, ptr %4, align 4, !tbaa !47
  %47 = add i32 %46, -1
  store i32 %47, ptr %4, align 4, !tbaa !47
  %48 = icmp ne i32 %46, 0
  br i1 %48, label %49, label %52

49:                                               ; preds = %45
  %50 = load ptr, ptr %5, align 8, !tbaa !89
  %51 = getelementptr inbounds nuw i8, ptr %50, i32 1
  store ptr %51, ptr %5, align 8, !tbaa !89
  store volatile i8 0, ptr %50, align 1, !tbaa !54
  br label %45, !llvm.loop !96

52:                                               ; preds = %45
  call void @llvm.lifetime.end.p0(i64 4, ptr %7) #9
  call void @llvm.lifetime.end.p0(i64 8, ptr %6) #9
  call void @llvm.lifetime.end.p0(i64 8, ptr %5) #9
  ret void
}

; Function Attrs: nounwind uwtable
define i32 @IsEncryptionOn(ptr noundef %0, i32 noundef %1) #0 {
  %3 = alloca ptr, align 8
  %4 = alloca i32, align 4
  store ptr %0, ptr %3, align 8, !tbaa !3
  store i32 %1, ptr %4, align 4, !tbaa !47
  %5 = load ptr, ptr %3, align 8, !tbaa !3
  %6 = getelementptr inbounds nuw %struct.WOLFSSL, ptr %5, i32 0, i32 48
  %7 = getelementptr inbounds nuw %struct.Keys, ptr %6, i32 0, i32 15
  %8 = load i8, ptr %7, align 4, !tbaa !48
  %9 = zext i8 %8 to i32
  %10 = icmp ne i32 %9, 0
  br i1 %10, label %11, label %29

11:                                               ; preds = %2
  %12 = load i32, ptr %4, align 4, !tbaa !47
  %13 = icmp ne i32 %12, 0
  br i1 %13, label %14, label %20

14:                                               ; preds = %11
  %15 = load ptr, ptr %3, align 8, !tbaa !3
  %16 = getelementptr inbounds nuw %struct.WOLFSSL, ptr %15, i32 0, i32 23
  %17 = getelementptr inbounds nuw %struct.Ciphers, ptr %16, i32 0, i32 5
  %18 = load i8, ptr %17, align 1, !tbaa !49
  %19 = zext i8 %18 to i32
  br label %26

20:                                               ; preds = %11
  %21 = load ptr, ptr %3, align 8, !tbaa !3
  %22 = getelementptr inbounds nuw %struct.WOLFSSL, ptr %21, i32 0, i32 24
  %23 = getelementptr inbounds nuw %struct.Ciphers, ptr %22, i32 0, i32 5
  %24 = load i8, ptr %23, align 1, !tbaa !50
  %25 = zext i8 %24 to i32
  br label %26

26:                                               ; preds = %20, %14
  %27 = phi i32 [ %19, %14 ], [ %25, %20 ]
  %28 = icmp ne i32 %27, 0
  br label %29

29:                                               ; preds = %26, %2
  %30 = phi i1 [ false, %2 ], [ %28, %26 ]
  %31 = zext i1 %30 to i32
  ret i32 %31
}

; Function Attrs: nounwind uwtable
define i32 @GrowInputBuffer(ptr noundef %0, i32 noundef %1, i32 noundef %2) #0 {
  %4 = alloca i32, align 4
  %5 = alloca ptr, align 8
  %6 = alloca i32, align 4
  %7 = alloca i32, align 4
  %8 = alloca ptr, align 8
  %9 = alloca i8, align 1
  %10 = alloca i32, align 4
  %11 = alloca ptr, align 8
  store ptr %0, ptr %5, align 8, !tbaa !3
  store i32 %1, ptr %6, align 4, !tbaa !47
  store i32 %2, ptr %7, align 4, !tbaa !47
  call void @llvm.lifetime.start.p0(i64 8, ptr %8) #9
  call void @llvm.lifetime.start.p0(i64 1, ptr %9) #9
  store i8 0, ptr %9, align 1, !tbaa !54
  %12 = load i32, ptr %7, align 4, !tbaa !47
  %13 = icmp slt i32 %12, 0
  br i1 %13, label %17, label %14

14:                                               ; preds = %3
  %15 = load i32, ptr %6, align 4, !tbaa !47
  %16 = icmp slt i32 %15, 0
  br i1 %16, label %17, label %21

17:                                               ; preds = %14, %3
  br label %18

18:                                               ; preds = %17
  br label %19

19:                                               ; preds = %18
  br label %20

20:                                               ; preds = %19
  store i32 -173, ptr %4, align 4
  store i32 1, ptr %10, align 4
  br label %128

21:                                               ; preds = %14
  %22 = load i32, ptr %6, align 4, !tbaa !47
  %23 = load i32, ptr %7, align 4, !tbaa !47
  %24 = add nsw i32 %22, %23
  %25 = add nsw i32 %24, 0
  %26 = sext i32 %25 to i64
  %27 = call ptr @wolfSSL_Malloc(i64 noundef %26)
  store ptr %27, ptr %8, align 8, !tbaa !89
  br label %28

28:                                               ; preds = %21
  br label %29

29:                                               ; preds = %28
  br label %30

30:                                               ; preds = %29
  %31 = load ptr, ptr %8, align 8, !tbaa !89
  %32 = icmp eq ptr %31, null
  br i1 %32, label %33, label %34

33:                                               ; preds = %30
  store i32 -125, ptr %4, align 4
  store i32 1, ptr %10, align 4
  br label %128

34:                                               ; preds = %30
  %35 = load i32, ptr %7, align 4, !tbaa !47
  %36 = icmp ne i32 %35, 0
  br i1 %36, label %37, label %53

37:                                               ; preds = %34
  %38 = load ptr, ptr %8, align 8, !tbaa !89
  %39 = load ptr, ptr %5, align 8, !tbaa !3
  %40 = getelementptr inbounds nuw %struct.WOLFSSL, ptr %39, i32 0, i32 26
  %41 = getelementptr inbounds nuw %struct.Buffers, ptr %40, i32 0, i32 0
  %42 = getelementptr inbounds nuw %struct.bufferStatic, ptr %41, i32 0, i32 1
  %43 = load ptr, ptr %42, align 8, !tbaa !208
  %44 = load ptr, ptr %5, align 8, !tbaa !3
  %45 = getelementptr inbounds nuw %struct.WOLFSSL, ptr %44, i32 0, i32 26
  %46 = getelementptr inbounds nuw %struct.Buffers, ptr %45, i32 0, i32 0
  %47 = getelementptr inbounds nuw %struct.bufferStatic, ptr %46, i32 0, i32 3
  %48 = load i32, ptr %47, align 4, !tbaa !264
  %49 = zext i32 %48 to i64
  %50 = getelementptr inbounds nuw i8, ptr %43, i64 %49
  %51 = load i32, ptr %7, align 4, !tbaa !47
  %52 = sext i32 %51 to i64
  call void @llvm.memcpy.p0.p0.i64(ptr align 1 %38, ptr align 1 %50, i64 %52, i1 false)
  br label %53

53:                                               ; preds = %37, %34
  %54 = load ptr, ptr %5, align 8, !tbaa !3
  %55 = getelementptr inbounds nuw %struct.WOLFSSL, ptr %54, i32 0, i32 26
  %56 = getelementptr inbounds nuw %struct.Buffers, ptr %55, i32 0, i32 0
  %57 = getelementptr inbounds nuw %struct.bufferStatic, ptr %56, i32 0, i32 5
  %58 = load i8, ptr %57, align 4, !tbaa !257
  %59 = icmp ne i8 %58, 0
  br i1 %59, label %60, label %98

60:                                               ; preds = %53
  %61 = load ptr, ptr %5, align 8, !tbaa !3
  %62 = call i32 @IsEncryptionOn(ptr noundef %61, i32 noundef 1)
  %63 = icmp ne i32 %62, 0
  br i1 %63, label %64, label %75

64:                                               ; preds = %60
  %65 = load ptr, ptr %5, align 8, !tbaa !3
  %66 = getelementptr inbounds nuw %struct.WOLFSSL, ptr %65, i32 0, i32 26
  %67 = getelementptr inbounds nuw %struct.Buffers, ptr %66, i32 0, i32 0
  %68 = getelementptr inbounds nuw %struct.bufferStatic, ptr %67, i32 0, i32 1
  %69 = load ptr, ptr %68, align 8, !tbaa !208
  %70 = load ptr, ptr %5, align 8, !tbaa !3
  %71 = getelementptr inbounds nuw %struct.WOLFSSL, ptr %70, i32 0, i32 26
  %72 = getelementptr inbounds nuw %struct.Buffers, ptr %71, i32 0, i32 0
  %73 = getelementptr inbounds nuw %struct.bufferStatic, ptr %72, i32 0, i32 2
  %74 = load i32, ptr %73, align 16, !tbaa !263
  call void @ForceZero(ptr noundef %69, i32 noundef %74)
  br label %75

75:                                               ; preds = %64, %60
  br label %76

76:                                               ; preds = %75
  call void @llvm.lifetime.start.p0(i64 8, ptr %11) #9
  %77 = load ptr, ptr %5, align 8, !tbaa !3
  %78 = getelementptr inbounds nuw %struct.WOLFSSL, ptr %77, i32 0, i32 26
  %79 = getelementptr inbounds nuw %struct.Buffers, ptr %78, i32 0, i32 0
  %80 = getelementptr inbounds nuw %struct.bufferStatic, ptr %79, i32 0, i32 1
  %81 = load ptr, ptr %80, align 8, !tbaa !208
  %82 = load ptr, ptr %5, align 8, !tbaa !3
  %83 = getelementptr inbounds nuw %struct.WOLFSSL, ptr %82, i32 0, i32 26
  %84 = getelementptr inbounds nuw %struct.Buffers, ptr %83, i32 0, i32 0
  %85 = getelementptr inbounds nuw %struct.bufferStatic, ptr %84, i32 0, i32 6
  %86 = load i8, ptr %85, align 1, !tbaa !266
  %87 = zext i8 %86 to i32
  %88 = sext i32 %87 to i64
  %89 = sub i64 0, %88
  %90 = getelementptr inbounds i8, ptr %81, i64 %89
  store ptr %90, ptr %11, align 8, !tbaa !59
  %91 = load ptr, ptr %11, align 8, !tbaa !59
  %92 = icmp ne ptr %91, null
  br i1 %92, label %93, label %95

93:                                               ; preds = %76
  %94 = load ptr, ptr %11, align 8, !tbaa !59
  call void @wolfSSL_Free(ptr noundef %94)
  br label %95

95:                                               ; preds = %93, %76
  call void @llvm.lifetime.end.p0(i64 8, ptr %11) #9
  br label %96

96:                                               ; preds = %95
  br label %97

97:                                               ; preds = %96
  br label %98

98:                                               ; preds = %97, %53
  %99 = load ptr, ptr %5, align 8, !tbaa !3
  %100 = getelementptr inbounds nuw %struct.WOLFSSL, ptr %99, i32 0, i32 26
  %101 = getelementptr inbounds nuw %struct.Buffers, ptr %100, i32 0, i32 0
  %102 = getelementptr inbounds nuw %struct.bufferStatic, ptr %101, i32 0, i32 5
  store i8 1, ptr %102, align 4, !tbaa !257
  %103 = load ptr, ptr %5, align 8, !tbaa !3
  %104 = getelementptr inbounds nuw %struct.WOLFSSL, ptr %103, i32 0, i32 26
  %105 = getelementptr inbounds nuw %struct.Buffers, ptr %104, i32 0, i32 0
  %106 = getelementptr inbounds nuw %struct.bufferStatic, ptr %105, i32 0, i32 6
  store i8 0, ptr %106, align 1, !tbaa !266
  %107 = load ptr, ptr %8, align 8, !tbaa !89
  %108 = load ptr, ptr %5, align 8, !tbaa !3
  %109 = getelementptr inbounds nuw %struct.WOLFSSL, ptr %108, i32 0, i32 26
  %110 = getelementptr inbounds nuw %struct.Buffers, ptr %109, i32 0, i32 0
  %111 = getelementptr inbounds nuw %struct.bufferStatic, ptr %110, i32 0, i32 1
  store ptr %107, ptr %111, align 8, !tbaa !208
  %112 = load i32, ptr %6, align 4, !tbaa !47
  %113 = load i32, ptr %7, align 4, !tbaa !47
  %114 = add nsw i32 %112, %113
  %115 = load ptr, ptr %5, align 8, !tbaa !3
  %116 = getelementptr inbounds nuw %struct.WOLFSSL, ptr %115, i32 0, i32 26
  %117 = getelementptr inbounds nuw %struct.Buffers, ptr %116, i32 0, i32 0
  %118 = getelementptr inbounds nuw %struct.bufferStatic, ptr %117, i32 0, i32 4
  store i32 %114, ptr %118, align 8, !tbaa !209
  %119 = load ptr, ptr %5, align 8, !tbaa !3
  %120 = getelementptr inbounds nuw %struct.WOLFSSL, ptr %119, i32 0, i32 26
  %121 = getelementptr inbounds nuw %struct.Buffers, ptr %120, i32 0, i32 0
  %122 = getelementptr inbounds nuw %struct.bufferStatic, ptr %121, i32 0, i32 3
  store i32 0, ptr %122, align 4, !tbaa !264
  %123 = load i32, ptr %7, align 4, !tbaa !47
  %124 = load ptr, ptr %5, align 8, !tbaa !3
  %125 = getelementptr inbounds nuw %struct.WOLFSSL, ptr %124, i32 0, i32 26
  %126 = getelementptr inbounds nuw %struct.Buffers, ptr %125, i32 0, i32 0
  %127 = getelementptr inbounds nuw %struct.bufferStatic, ptr %126, i32 0, i32 2
  store i32 %123, ptr %127, align 16, !tbaa !263
  store i32 0, ptr %4, align 4
  store i32 1, ptr %10, align 4
  br label %128

128:                                              ; preds = %98, %33, %20
  call void @llvm.lifetime.end.p0(i64 1, ptr %9) #9
  call void @llvm.lifetime.end.p0(i64 8, ptr %8) #9
  %129 = load i32, ptr %4, align 4
  ret i32 %129
}