; Function Attrs: nounwind uwtable
define range(i32 -173, 1) i32 @GrowInputBuffer(ptr noundef captures(none) %0, i32 noundef %1, i32 noundef %2) local_unnamed_addr #5 {
  %4 = or i32 %2, %1
  %or.cond.not = icmp sgt i32 %4, -1
  br i1 %or.cond.not, label %5, label %57

5:                                                ; preds = %3
  %6 = add nuw nsw i32 %2, %1
  %7 = zext nneg i32 %6 to i64
  %8 = tail call ptr @wolfSSL_Malloc(i64 noundef %7) #26
  %9 = icmp eq ptr %8, null
  br i1 %9, label %57, label %10

10:                                               ; preds = %5
  %.not = icmp eq i32 %2, 0
  br i1 %.not, label %19, label %11

11:                                               ; preds = %10
  %12 = getelementptr inbounds nuw i8, ptr %0, i64 360
  %13 = load ptr, ptr %12, align 8, !tbaa !171
  %14 = getelementptr inbounds nuw i8, ptr %0, i64 372
  %15 = load i32, ptr %14, align 4, !tbaa !216
  %16 = zext i32 %15 to i64
  %17 = getelementptr inbounds nuw i8, ptr %13, i64 %16
  %18 = zext nneg i32 %2 to i64
  tail call void @llvm.memcpy.p0.p0.i64(ptr nonnull align 1 %8, ptr align 1 %17, i64 %18, i1 false)
  br label %19

19:                                               ; preds = %11, %10
  %20 = getelementptr inbounds nuw i8, ptr %0, i64 380
  %21 = load i8, ptr %20, align 4, !tbaa !214
  %.not33 = icmp eq i8 %21, 0
  br i1 %.not33, label %51, label %22

22:                                               ; preds = %19
  %23 = getelementptr inbounds nuw i8, ptr %0, i64 1012
  %24 = load i8, ptr %23, align 4, !tbaa !44
  %.not.i = icmp eq i8 %24, 0
  br i1 %.not.i, label %ForceZero.exit, label %IsEncryptionOn.exit

IsEncryptionOn.exit:                              ; preds = %22
  %.in.in.i = getelementptr inbounds nuw i8, ptr %0, i64 297
  %.in.i = load i8, ptr %.in.in.i, align 1, !tbaa !45
  %.not38 = icmp eq i8 %.in.i, 0
  br i1 %.not38, label %ForceZero.exit, label %25

25:                                               ; preds = %IsEncryptionOn.exit
  %26 = getelementptr inbounds nuw i8, ptr %0, i64 360
  %27 = load ptr, ptr %26, align 8, !tbaa !171
  %28 = getelementptr inbounds nuw i8, ptr %0, i64 368
  %29 = load i32, ptr %28, align 16, !tbaa !215
  %30 = ptrtoint ptr %27 to i64
  %31 = trunc i64 %30 to i32
  %32 = sub i32 0, %31
  %33 = and i32 %32, 7
  %spec.select.i = tail call i32 @llvm.umin.i32(i32 %29, i32 %33)
  %34 = sub i32 %29, %spec.select.i
  %.not24.i = icmp eq i32 %spec.select.i, 0
  br i1 %.not24.i, label %.preheader23.i, label %.lr.ph.i

.preheader23.i:                                   ; preds = %.lr.ph.i, %25
  %.016.lcssa.i = phi ptr [ %27, %25 ], [ %37, %.lr.ph.i ]
  %35 = icmp ugt i32 %34, 7
  br i1 %35, label %.lr.ph29.i, label %.preheader.i

.lr.ph.i:                                         ; preds = %25, %.lr.ph.i
  %.126.i = phi i32 [ %36, %.lr.ph.i ], [ %spec.select.i, %25 ]
  %.01625.i = phi ptr [ %37, %.lr.ph.i ], [ %27, %25 ]
  %36 = add nsw i32 %.126.i, -1
  %37 = getelementptr inbounds nuw i8, ptr %.01625.i, i64 1
  store volatile i8 0, ptr %.01625.i, align 1, !tbaa !45
  %.not.i36 = icmp eq i32 %36, 0
  br i1 %.not.i36, label %.preheader23.i, label %.lr.ph.i, !llvm.loop !79

.preheader.i:                                     ; preds = %.lr.ph29.i, %.preheader23.i
  %.018.lcssa.i = phi i32 [ %34, %.preheader23.i ], [ %39, %.lr.ph29.i ]
  %.015.lcssa.i = phi ptr [ %.016.lcssa.i, %.preheader23.i ], [ %38, %.lr.ph29.i ]
  %.not2232.i = icmp eq i32 %.018.lcssa.i, 0
  br i1 %.not2232.i, label %ForceZero.exit, label %.lr.ph35.i

.lr.ph29.i:                                       ; preds = %.preheader23.i, %.lr.ph29.i
  %.01528.i = phi ptr [ %38, %.lr.ph29.i ], [ %.016.lcssa.i, %.preheader23.i ]
  %.01827.i = phi i32 [ %39, %.lr.ph29.i ], [ %34, %.preheader23.i ]
  %38 = getelementptr inbounds nuw i8, ptr %.01528.i, i64 8
  store volatile i64 0, ptr %.01528.i, align 8, !tbaa !81
  %39 = add i32 %.01827.i, -8
  %40 = icmp ugt i32 %39, 7
  br i1 %40, label %.lr.ph29.i, label %.preheader.i, !llvm.loop !82

.lr.ph35.i:                                       ; preds = %.preheader.i, %.lr.ph35.i
  %.11734.i = phi ptr [ %42, %.lr.ph35.i ], [ %.015.lcssa.i, %.preheader.i ]
  %.11933.i = phi i32 [ %41, %.lr.ph35.i ], [ %.018.lcssa.i, %.preheader.i ]
  %41 = add i32 %.11933.i, -1
  %42 = getelementptr inbounds nuw i8, ptr %.11734.i, i64 1
  store volatile i8 0, ptr %.11734.i, align 1, !tbaa !45
  %.not22.i = icmp eq i32 %41, 0
  br i1 %.not22.i, label %ForceZero.exit, label %.lr.ph35.i, !llvm.loop !83

ForceZero.exit:                                   ; preds = %.lr.ph35.i, %22, %.preheader.i, %IsEncryptionOn.exit
  %43 = getelementptr inbounds nuw i8, ptr %0, i64 360
  %44 = load ptr, ptr %43, align 8, !tbaa !171
  %.not35 = icmp eq ptr %44, null
  br i1 %.not35, label %51, label %45

45:                                               ; preds = %ForceZero.exit
  %46 = getelementptr inbounds nuw i8, ptr %0, i64 381
  %47 = load i8, ptr %46, align 1, !tbaa !217
  %48 = zext i8 %47 to i64
  %49 = sub nsw i64 0, %48
  %50 = getelementptr inbounds i8, ptr %44, i64 %49
  tail call void @wolfSSL_Free(ptr noundef nonnull %50) #26
  br label %51

51:                                               ; preds = %ForceZero.exit, %45, %19
  store i8 1, ptr %20, align 4, !tbaa !214
  %52 = getelementptr inbounds nuw i8, ptr %0, i64 381
  store i8 0, ptr %52, align 1, !tbaa !217
  %53 = getelementptr inbounds nuw i8, ptr %0, i64 360
  store ptr %8, ptr %53, align 8, !tbaa !171
  %54 = getelementptr inbounds nuw i8, ptr %0, i64 376
  store i32 %6, ptr %54, align 8, !tbaa !172
  %55 = getelementptr inbounds nuw i8, ptr %0, i64 372
  store i32 0, ptr %55, align 4, !tbaa !216
  %56 = getelementptr inbounds nuw i8, ptr %0, i64 368
  store i32 %2, ptr %56, align 16, !tbaa !215
  br label %57

57:                                               ; preds = %5, %3, %51
  %.0 = phi i32 [ 0, %51 ], [ -173, %3 ], [ -125, %5 ]
  ret i32 %.0
}